; Function Attrs: mustprogress uwtable
define void @_ZN10TimerGroup5ResetEv(ptr noundef nonnull align 8 dereferenceable(56) %0) local_unnamed_addr #3 align 2 personality ptr @__gxx_personality_v0 {
  %2 = getelementptr inbounds nuw i8, ptr %0, i64 8
  %3 = load ptr, ptr %2, align 8
  %4 = load ptr, ptr %0, align 8
  %5 = ptrtoint ptr %3 to i64
  %6 = ptrtoint ptr %4 to i64
  %7 = sub i64 %5, %6
  %8 = sdiv exact i64 %7, 72
  %9 = icmp ult i64 %8, 50
  br i1 %9, label %10, label %12

10:                                               ; preds = %1
  %11 = sub nuw nsw i64 50, %8
  tail call void @_ZNSt6vectorI5TimerSaIS0_EE17_M_default_appendEm(ptr noundef nonnull align 8 dereferenceable(24) %0, i64 noundef %11)
  %.pre = load ptr, ptr %2, align 8
  br label %_ZNSt6vectorI5TimerSaIS0_EE6resizeEm.exit

12:                                               ; preds = %1
  %.not = icmp eq i64 %7, 3600
  br i1 %.not, label %_ZNSt6vectorI5TimerSaIS0_EE6resizeEm.exit, label %13

13:                                               ; preds = %12
  %14 = getelementptr inbounds i8, ptr %4, i64 3600
  %.not.i.i = icmp eq ptr %3, %14
  br i1 %.not.i.i, label %_ZNSt6vectorI5TimerSaIS0_EE6resizeEm.exit, label %.lr.ph.i.i.i.i.i

.lr.ph.i.i.i.i.i:                                 ; preds = %13, %.lr.ph.i.i.i.i.i
  %.05.i.i.i.i.i = phi ptr [ %15, %.lr.ph.i.i.i.i.i ], [ %14, %13 ]
  tail call void @_ZN5TimerD1Ev(ptr noundef nonnull align 8 dereferenceable(72) %.05.i.i.i.i.i) #15
  %15 = getelementptr inbounds i8, ptr %.05.i.i.i.i.i, i64 72
  %.not.i.i.i.i.i = icmp eq ptr %15, %3
  br i1 %.not.i.i.i.i.i, label %_ZSt8_DestroyIP5TimerS0_EvT_S2_RSaIT0_E.exit.i.i, label %.lr.ph.i.i.i.i.i, !llvm.loop !4

_ZSt8_DestroyIP5TimerS0_EvT_S2_RSaIT0_E.exit.i.i: ; preds = %.lr.ph.i.i.i.i.i
  store ptr %14, ptr %2, align 8
  br label %_ZNSt6vectorI5TimerSaIS0_EE6resizeEm.exit

_ZNSt6vectorI5TimerSaIS0_EE6resizeEm.exit:        ; preds = %10, %12, %13, %_ZSt8_DestroyIP5TimerS0_EvT_S2_RSaIT0_E.exit.i.i
  %16 = phi ptr [ %.pre, %10 ], [ %3, %12 ], [ %3, %13 ], [ %14, %_ZSt8_DestroyIP5TimerS0_EvT_S2_RSaIT0_E.exit.i.i ]
  %17 = load ptr, ptr %0, align 8
  %.not5 = icmp eq ptr %16, %17
  br i1 %.not5, label %._crit_edge, label %.lr.ph

.lr.ph:                                           ; preds = %_ZNSt6vectorI5TimerSaIS0_EE6resizeEm.exit, %.lr.ph
  %18 = phi ptr [ %24, %.lr.ph ], [ %17, %_ZNSt6vectorI5TimerSaIS0_EE6resizeEm.exit ]
  %19 = phi i64 [ %22, %.lr.ph ], [ 0, %_ZNSt6vectorI5TimerSaIS0_EE6resizeEm.exit ]
  %.04 = phi i32 [ %21, %.lr.ph ], [ 0, %_ZNSt6vectorI5TimerSaIS0_EE6resizeEm.exit ]
  %20 = getelementptr inbounds %class.Timer, ptr %18, i64 %19
  tail call void @_ZN5Timer5ResetEv(ptr noundef nonnull align 8 dereferenceable(72) %20)
  %21 = add i32 %.04, 1
  %22 = zext i32 %21 to i64
  %23 = load ptr, ptr %2, align 8
  %24 = load ptr, ptr %0, align 8
  %25 = ptrtoint ptr %23 to i64
  %26 = ptrtoint ptr %24 to i64
  %27 = sub i64 %25, %26
  %28 = sdiv exact i64 %27, 72
  %29 = icmp ugt i64 %28, %22
  br i1 %29, label %.lr.ph, label %._crit_edge, !llvm.loop !6

._crit_edge:                                      ; preds = %.lr.ph, %_ZNSt6vectorI5TimerSaIS0_EE6resizeEm.exit
  ret void
}